; Function Attrs: nounwind sspstrong uwtable
define internal fastcc void @extract_options(ptr noundef nonnull initializes((40, 44)) %0, i64 noundef %1, i64 noundef %2) unnamed_addr #0 {
  %4 = alloca %struct.build_options_data, align 8
  %5 = alloca i32, align 4
  %6 = getelementptr inbounds nuw i8, ptr %0, i64 40
  store i32 1, ptr %6, align 8, !tbaa !13
  %7 = icmp eq i64 %2, 4
  br i1 %7, label %16, label %8

8:                                                ; preds = %3
  call void @llvm.lifetime.start.p0(i64 16, ptr nonnull %4) #9
  store ptr %0, ptr %4, align 8, !tbaa !21
  %9 = getelementptr inbounds nuw i8, ptr %4, i64 8
  store i64 %2, ptr %9, align 8, !tbaa !24
  call void @llvm.lifetime.start.p0(i64 4, ptr nonnull %5) #9
  store i32 0, ptr %5, align 4, !tbaa !25
  %10 = ptrtoint ptr %4 to i64
  %11 = call i64 @rb_protect(ptr noundef nonnull @build_options, i64 noundef %10, ptr noundef nonnull %5) #9
  %12 = load i32, ptr %5, align 4, !tbaa !25
  %.not = icmp eq i32 %12, 0
  br i1 %.not, label %15, label %13

13:                                               ; preds = %8
  call void @pm_options_free(ptr noundef nonnull %0) #9
  %14 = load i32, ptr %5, align 4, !tbaa !25
  call void @rb_jump_tag(i32 noundef %14) #11
  unreachable

15:                                               ; preds = %8
  call void @llvm.lifetime.end.p0(i64 4, ptr nonnull %5) #9
  call void @llvm.lifetime.end.p0(i64 16, ptr nonnull %4) #9
  br label %16

16:                                               ; preds = %15, %3
  %17 = icmp eq i64 %1, 4
  br i1 %17, label %33, label %18

18:                                               ; preds = %16
  %19 = icmp eq i64 %1, 0
  %20 = and i64 %1, 7
  %21 = icmp ne i64 %20, 0
  %22 = or i1 %19, %21
  br i1 %22, label %rbimpl_RB_TYPE_P_fastpath.exit.thread, label %rbimpl_RB_TYPE_P_fastpath.exit

rbimpl_RB_TYPE_P_fastpath.exit:                   ; preds = %18
  %23 = inttoptr i64 %1 to ptr
  %24 = load i64, ptr %23, align 8, !tbaa !47
  %25 = and i64 %24, 31
  %26 = icmp eq i64 %25, 5
  br i1 %26, label %29, label %rbimpl_RB_TYPE_P_fastpath.exit.thread

rbimpl_RB_TYPE_P_fastpath.exit.thread:            ; preds = %18, %rbimpl_RB_TYPE_P_fastpath.exit
  call void @pm_options_free(ptr noundef nonnull %0) #9
  %27 = load i64, ptr @rb_eTypeError, align 8, !tbaa !7
  %28 = call i64 @rb_obj_class(i64 noundef %1) #9
  call void (i64, ptr, ...) @rb_raise(i64 noundef %27, ptr noundef nonnull @.str.60, i64 noundef %28) #11
  unreachable

29:                                               ; preds = %rbimpl_RB_TYPE_P_fastpath.exit
  %30 = and i64 %24, 8192
  %.not.i.i = icmp eq i64 %30, 0
  %31 = getelementptr inbounds nuw i8, ptr %23, i64 24
  br i1 %.not.i.i, label %RSTRING_PTR.exit, label %32

32:                                               ; preds = %29
  %.sroa.2.0.copyload.i = load ptr, ptr %31, align 8
  br label %RSTRING_PTR.exit

RSTRING_PTR.exit:                                 ; preds = %29, %32
  %.sroa.2.0.i = phi ptr [ %.sroa.2.0.copyload.i, %32 ], [ %31, %29 ]
  call void @pm_options_filepath_set(ptr noundef nonnull %0, ptr noundef %.sroa.2.0.i) #9
  br label %33

33:                                               ; preds = %RSTRING_PTR.exit, %16
  ret void
}